target datalayout = "e-m:e-p270:32:32-p271:32:32-p272:64:64-i64:64-i128:128-f80:128-n8:16:32:64-S128"
target triple = "x86_64-pc-linux-gnu"

%struct._CharList = type { ptr, ptr }

@stderr = external global ptr, align 8
@.str.3 = private unnamed_addr constant [38 x i8] c"## ERR: Path too long [%d chars]: %s\0A\00", align 1

; Function Attrs: nounwind uwtable
define dso_local ptr @pkg_prependToList(ptr noundef %0, ptr noundef %1) #0 {
  %3 = alloca ptr, align 8
  %4 = alloca ptr, align 8
  %5 = alloca ptr, align 8
  %6 = alloca ptr, align 8
  %7 = alloca i32, align 4
  store ptr %0, ptr %4, align 8, !tbaa !9
  store ptr %1, ptr %5, align 8, !tbaa !11
  call void @llvm.lifetime.start.p0(i64 8, ptr %6) #7
  %8 = call noalias ptr @uprv_malloc_77(i64 noundef 16) #10
  store ptr %8, ptr %6, align 8, !tbaa !9
  %9 = load ptr, ptr %6, align 8, !tbaa !9
  %10 = icmp eq ptr %9, null
  br i1 %10, label %11, label %12

11:                                               ; preds = %2
  store ptr null, ptr %3, align 8
  store i32 1, ptr %7, align 4
  br label %20

12:                                               ; preds = %2
  %13 = load ptr, ptr %5, align 8, !tbaa !11
  %14 = load ptr, ptr %6, align 8, !tbaa !9
  %15 = getelementptr inbounds nuw %struct._CharList, ptr %14, i32 0, i32 0
  store ptr %13, ptr %15, align 8, !tbaa !15
  %16 = load ptr, ptr %4, align 8, !tbaa !9
  %17 = load ptr, ptr %6, align 8, !tbaa !9
  %18 = getelementptr inbounds nuw %struct._CharList, ptr %17, i32 0, i32 1
  store ptr %16, ptr %18, align 8, !tbaa !18
  %19 = load ptr, ptr %6, align 8, !tbaa !9
  store ptr %19, ptr %3, align 8
  store i32 1, ptr %7, align 4
  br label %20

20:                                               ; preds = %12, %11
  call void @llvm.lifetime.end.p0(i64 8, ptr %6) #7
  %21 = load ptr, ptr %3, align 8
  ret ptr %21
}

; Function Attrs: nounwind uwtable
define dso_local ptr @pkg_appendToList(ptr noundef %0, ptr noundef %1, ptr noundef %2) #0 {
  %4 = alloca ptr, align 8
  %5 = alloca ptr, align 8
  %6 = alloca ptr, align 8
  %7 = alloca ptr, align 8
  %8 = alloca ptr, align 8
  store ptr %0, ptr %4, align 8, !tbaa !9
  store ptr %1, ptr %5, align 8, !tbaa !25
  store ptr %2, ptr %6, align 8, !tbaa !11
  call void @llvm.lifetime.start.p0(i64 8, ptr %7) #7
  store ptr null, ptr %7, align 8, !tbaa !9
  call void @llvm.lifetime.start.p0(i64 8, ptr %8) #7
  %9 = load ptr, ptr %5, align 8, !tbaa !25
  %10 = icmp eq ptr %9, null
  br i1 %10, label %11, label %12

11:                                               ; preds = %3
  store ptr %7, ptr %5, align 8, !tbaa !25
  br label %12

12:                                               ; preds = %11, %3
  %13 = load ptr, ptr %5, align 8, !tbaa !25
  %14 = load ptr, ptr %13, align 8, !tbaa !9
  %15 = icmp eq ptr %14, null
  br i1 %15, label %16, label %33

16:                                               ; preds = %12
  %17 = load ptr, ptr %4, align 8, !tbaa !9
  %18 = icmp ne ptr %17, null
  br i1 %18, label %19, label %33

19:                                               ; preds = %16
  %20 = load ptr, ptr %4, align 8, !tbaa !9
  store ptr %20, ptr %8, align 8, !tbaa !9
  br label %21

21:                                               ; preds = %26, %19
  %22 = load ptr, ptr %8, align 8, !tbaa !9
  %23 = getelementptr inbounds nuw %struct._CharList, ptr %22, i32 0, i32 1
  %24 = load ptr, ptr %23, align 8, !tbaa !18
  %25 = icmp ne ptr %24, null
  br i1 %25, label %26, label %30

26:                                               ; preds = %21
  %27 = load ptr, ptr %8, align 8, !tbaa !9
  %28 = getelementptr inbounds nuw %struct._CharList, ptr %27, i32 0, i32 1
  %29 = load ptr, ptr %28, align 8, !tbaa !18
  store ptr %29, ptr %8, align 8, !tbaa !9
  br label %21, !llvm.loop !28

30:                                               ; preds = %21
  %31 = load ptr, ptr %8, align 8, !tbaa !9
  %32 = load ptr, ptr %5, align 8, !tbaa !25
  store ptr %31, ptr %32, align 8, !tbaa !9
  br label %33

33:                                               ; preds = %30, %16, %12
  %34 = load ptr, ptr %4, align 8, !tbaa !9
  %35 = icmp eq ptr %34, null
  br i1 %35, label %36, label %39

36:                                               ; preds = %33
  %37 = load ptr, ptr %6, align 8, !tbaa !11
  %38 = call ptr @pkg_prependToList(ptr noundef null, ptr noundef %37)
  store ptr %38, ptr %4, align 8, !tbaa !9
  br label %45

39:                                               ; preds = %33
  %40 = load ptr, ptr %6, align 8, !tbaa !11
  %41 = call ptr @pkg_prependToList(ptr noundef null, ptr noundef %40)
  %42 = load ptr, ptr %5, align 8, !tbaa !25
  %43 = load ptr, ptr %42, align 8, !tbaa !9
  %44 = getelementptr inbounds nuw %struct._CharList, ptr %43, i32 0, i32 1
  store ptr %41, ptr %44, align 8, !tbaa !18
  br label %45

45:                                               ; preds = %39, %36
  %46 = load ptr, ptr %5, align 8, !tbaa !25
  %47 = load ptr, ptr %46, align 8, !tbaa !9
  %48 = icmp ne ptr %47, null
  br i1 %48, label %49, label %55

49:                                               ; preds = %45
  %50 = load ptr, ptr %5, align 8, !tbaa !25
  %51 = load ptr, ptr %50, align 8, !tbaa !9
  %52 = getelementptr inbounds nuw %struct._CharList, ptr %51, i32 0, i32 1
  %53 = load ptr, ptr %52, align 8, !tbaa !18
  %54 = load ptr, ptr %5, align 8, !tbaa !25
  store ptr %53, ptr %54, align 8, !tbaa !9
  br label %58

55:                                               ; preds = %45
  %56 = load ptr, ptr %4, align 8, !tbaa !9
  %57 = load ptr, ptr %5, align 8, !tbaa !25
  store ptr %56, ptr %57, align 8, !tbaa !9
  br label %58

58:                                               ; preds = %55, %49
  %59 = load ptr, ptr %4, align 8, !tbaa !9
  call void @llvm.lifetime.end.p0(i64 8, ptr %8) #7
  call void @llvm.lifetime.end.p0(i64 8, ptr %7) #7
  ret ptr %59
}

; Function Attrs: nounwind uwtable
define dso_local signext i8 @pkg_listContains(ptr noundef %0, ptr noundef %1) #0 {
  %3 = alloca i8, align 1
  %4 = alloca ptr, align 8
  %5 = alloca ptr, align 8
  store ptr %0, ptr %4, align 8, !tbaa !9
  store ptr %1, ptr %5, align 8, !tbaa !11
  br label %6

6:                                                ; preds = %18, %2
  %7 = load ptr, ptr %4, align 8, !tbaa !9
  %8 = icmp ne ptr %7, null
  br i1 %8, label %9, label %22

9:                                                ; preds = %6
  %10 = load ptr, ptr %4, align 8, !tbaa !9
  %11 = getelementptr inbounds nuw %struct._CharList, ptr %10, i32 0, i32 0
  %12 = load ptr, ptr %11, align 8, !tbaa !15
  %13 = load ptr, ptr %5, align 8, !tbaa !11
  %14 = call i32 @strcmp(ptr noundef %12, ptr noundef %13) #8
  %15 = icmp ne i32 %14, 0
  br i1 %15, label %17, label %16

16:                                               ; preds = %9
  store i8 1, ptr %3, align 1
  br label %23

17:                                               ; preds = %9
  br label %18

18:                                               ; preds = %17
  %19 = load ptr, ptr %4, align 8, !tbaa !9
  %20 = getelementptr inbounds nuw %struct._CharList, ptr %19, i32 0, i32 1
  %21 = load ptr, ptr %20, align 8, !tbaa !18
  store ptr %21, ptr %4, align 8, !tbaa !9
  br label %6, !llvm.loop !30

22:                                               ; preds = %6
  store i8 0, ptr %3, align 1
  br label %23

23:                                               ; preds = %22, %16
  %24 = load i8, ptr %3, align 1
  ret i8 %24
}

; Function Attrs: nounwind uwtable
define dso_local ptr @convertToNativePathSeparators(ptr noundef %0) #0 {
  %2 = alloca ptr, align 8
  %3 = alloca ptr, align 8
  store ptr %0, ptr %2, align 8, !tbaa !11
  call void @llvm.lifetime.start.p0(i64 8, ptr %3) #7
  br label %4

4:                                                ; preds = %8, %1
  %5 = load ptr, ptr %2, align 8, !tbaa !11
  %6 = call ptr @strchr(ptr noundef %5, i32 noundef 47) #8
  store ptr %6, ptr %3, align 8, !tbaa !11
  %7 = icmp ne ptr %6, null
  br i1 %7, label %8, label %10

8:                                                ; preds = %4
  %9 = load ptr, ptr %3, align 8, !tbaa !11
  store i8 47, ptr %9, align 1, !tbaa !17
  br label %4, !llvm.loop !29

10:                                               ; preds = %4
  %11 = load ptr, ptr %2, align 8, !tbaa !11
  call void @llvm.lifetime.end.p0(i64 8, ptr %3) #7
  ret ptr %11
}

; Function Attrs: nounwind uwtable
define dso_local ptr @pkg_appendUniqueDirToList(ptr noundef %0, ptr noundef %1, ptr noundef %2) #0 {
  %4 = alloca ptr, align 8
  %5 = alloca ptr, align 8
  %6 = alloca ptr, align 8
  %7 = alloca ptr, align 8
  %8 = alloca [1024 x i8], align 16
  %9 = alloca ptr, align 8
  %10 = alloca i32, align 4
  store ptr %0, ptr %5, align 8, !tbaa !9
  store ptr %1, ptr %6, align 8, !tbaa !25
  store ptr %2, ptr %7, align 8, !tbaa !11
  call void @llvm.lifetime.start.p0(i64 1024, ptr %8) #7
  call void @llvm.lifetime.start.p0(i64 8, ptr %9) #7
  %11 = load ptr, ptr %7, align 8, !tbaa !11
  %12 = call ptr @strrchr(ptr noundef %11, i32 noundef 47) #8
  store ptr %12, ptr %9, align 8, !tbaa !11
  %13 = load ptr, ptr %9, align 8, !tbaa !11
  %14 = icmp ne ptr %13, null
  br i1 %14, label %17, label %15

15:                                               ; preds = %3
  %16 = load ptr, ptr %5, align 8, !tbaa !9
  store ptr %16, ptr %4, align 8
  store i32 1, ptr %10, align 4
  br label %58

17:                                               ; preds = %3
  %18 = load ptr, ptr %9, align 8, !tbaa !11
  %19 = load ptr, ptr %7, align 8, !tbaa !11
  %20 = ptrtoint ptr %18 to i64
  %21 = ptrtoint ptr %19 to i64
  %22 = sub i64 %20, %21
  %23 = icmp sge i64 %22, 1024
  br i1 %23, label %24, label %29

24:                                               ; preds = %17
  %25 = load ptr, ptr @stderr, align 8, !tbaa !21
  %26 = load ptr, ptr %7, align 8, !tbaa !11
  %27 = call i32 (ptr, ptr, ...) @fprintf(ptr noundef %25, ptr noundef @.str.3, i32 noundef 1024, ptr noundef %26) #7
  %28 = load ptr, ptr %5, align 8, !tbaa !9
  store ptr %28, ptr %4, align 8
  store i32 1, ptr %10, align 4
  br label %58

29:                                               ; preds = %17
  %30 = getelementptr inbounds [1024 x i8], ptr %8, i64 0, i64 0
  %31 = load ptr, ptr %7, align 8, !tbaa !11
  %32 = load ptr, ptr %9, align 8, !tbaa !11
  %33 = load ptr, ptr %7, align 8, !tbaa !11
  %34 = ptrtoint ptr %32 to i64
  %35 = ptrtoint ptr %33 to i64
  %36 = sub i64 %34, %35
  %37 = call ptr @strncpy(ptr noundef %30, ptr noundef %31, i64 noundef %36) #7
  %38 = load ptr, ptr %9, align 8, !tbaa !11
  %39 = load ptr, ptr %7, align 8, !tbaa !11
  %40 = ptrtoint ptr %38 to i64
  %41 = ptrtoint ptr %39 to i64
  %42 = sub i64 %40, %41
  %43 = getelementptr inbounds [1024 x i8], ptr %8, i64 0, i64 %42
  store i8 0, ptr %43, align 1, !tbaa !17
  %44 = getelementptr inbounds [1024 x i8], ptr %8, i64 0, i64 0
  %45 = call ptr @convertToNativePathSeparators(ptr noundef %44)
  %46 = load ptr, ptr %5, align 8, !tbaa !9
  %47 = getelementptr inbounds [1024 x i8], ptr %8, i64 0, i64 0
  %48 = call signext i8 @pkg_listContains(ptr noundef %46, ptr noundef %47)
  %49 = icmp ne i8 %48, 0
  br i1 %49, label %56, label %50

50:                                               ; preds = %29
  %51 = load ptr, ptr %5, align 8, !tbaa !9
  %52 = load ptr, ptr %6, align 8, !tbaa !25
  %53 = getelementptr inbounds [1024 x i8], ptr %8, i64 0, i64 0
  %54 = call ptr @uprv_strdup_77(ptr noundef %53)
  %55 = call ptr @pkg_appendToList(ptr noundef %51, ptr noundef %52, ptr noundef %54)
  store ptr %55, ptr %4, align 8
  store i32 1, ptr %10, align 4
  br label %58

56:                                               ; preds = %29
  %57 = load ptr, ptr %5, align 8, !tbaa !9
  store ptr %57, ptr %4, align 8
  store i32 1, ptr %10, align 4
  br label %58

58:                                               ; preds = %56, %50, %24, %15
  call void @llvm.lifetime.end.p0(i64 8, ptr %9) #7
  call void @llvm.lifetime.end.p0(i64 1024, ptr %8) #7
  %59 = load ptr, ptr %4, align 8
  ret ptr %59
}