; Function Attrs: nounwind uwtable
define dso_local noundef ptr @pkg_appendUniqueDirToList(ptr noundef %0, ptr noundef %1, ptr noundef %2) local_unnamed_addr #0 {
  %4 = alloca [1024 x i8], align 16
  call void @llvm.lifetime.start.p0(i64 1024, ptr nonnull %4) #11
  %5 = tail call ptr @strrchr(ptr noundef nonnull dereferenceable(1) %2, i32 noundef 47) #12
  %.not = icmp eq ptr %5, null
  br i1 %.not, label %pkg_listContains.exit, label %6

6:                                                ; preds = %3
  %7 = ptrtoint ptr %5 to i64
  %8 = ptrtoint ptr %2 to i64
  %9 = sub i64 %7, %8
  %10 = icmp sgt i64 %9, 1023
  br i1 %10, label %11, label %14

11:                                               ; preds = %6
  %12 = load ptr, ptr @stderr, align 8, !tbaa !16
  %13 = tail call i32 (ptr, ptr, ...) @fprintf(ptr noundef %12, ptr noundef nonnull @.str.3, i32 noundef 1024, ptr noundef nonnull %2) #13
  br label %pkg_listContains.exit

14:                                               ; preds = %6
  %15 = call ptr @strncpy(ptr noundef nonnull %4, ptr noundef nonnull %2, i64 noundef %9) #11
  %16 = getelementptr inbounds [1024 x i8], ptr %4, i64 0, i64 %9
  store i8 0, ptr %16, align 1, !tbaa !11
  %17 = call ptr @strchr(ptr noundef nonnull dereferenceable(1) %4, i32 noundef 47) #12
  %.not3.i = icmp eq ptr %17, null
  br i1 %.not3.i, label %convertToNativePathSeparators.exit, label %.lr.ph.i

.lr.ph.i:                                         ; preds = %14, %.lr.ph.i
  %18 = phi ptr [ %19, %.lr.ph.i ], [ %17, %14 ]
  store i8 47, ptr %18, align 1, !tbaa !11
  %19 = call ptr @strchr(ptr noundef nonnull dereferenceable(1) %4, i32 noundef 47) #12
  %.not.i = icmp eq ptr %19, null
  br i1 %.not.i, label %convertToNativePathSeparators.exit, label %.lr.ph.i, !llvm.loop !21

convertToNativePathSeparators.exit:               ; preds = %.lr.ph.i, %14
  %.not6.i = icmp eq ptr %0, null
  br i1 %.not6.i, label %.loopexit, label %.lr.ph.i20

.lr.ph.i20:                                       ; preds = %convertToNativePathSeparators.exit, %22
  %.047.i = phi ptr [ %24, %22 ], [ %0, %convertToNativePathSeparators.exit ]
  %20 = load ptr, ptr %.047.i, align 8, !tbaa !4
  %21 = call i32 @strcmp(ptr noundef nonnull dereferenceable(1) %20, ptr noundef nonnull readonly dereferenceable(1) %4) #12
  %.not5.i = icmp eq i32 %21, 0
  br i1 %.not5.i, label %pkg_listContains.exit, label %22

22:                                               ; preds = %.lr.ph.i20
  %23 = getelementptr inbounds nuw i8, ptr %.047.i, i64 8
  %24 = load ptr, ptr %23, align 8, !tbaa !12
  %.not.i21 = icmp eq ptr %24, null
  br i1 %.not.i21, label %.loopexit, label %.lr.ph.i20, !llvm.loop !22

.loopexit:                                        ; preds = %22, %convertToNativePathSeparators.exit
  %25 = call ptr @uprv_strdup_77(ptr noundef nonnull %4) #11
  %26 = icmp eq ptr %1, null
  br i1 %26, label %.cont32.i, label %.else34.i

.else34.i:                                        ; preds = %.loopexit
  %.else.val35.i = load ptr, ptr %1, align 8, !tbaa !19
  %27 = icmp eq ptr %.else.val35.i, null
  br label %.cont32.i

.cont32.i:                                        ; preds = %.else34.i, %.loopexit
  %28 = phi i1 [ true, %.loopexit ], [ %27, %.else34.i ]
  %29 = icmp ne ptr %0, null
  %or.cond.i = and i1 %29, %28
  br i1 %or.cond.i, label %.preheader.i, label %.cont29.i

.preheader.i:                                     ; preds = %.cont32.i, %.preheader.i
  %.0.i22 = phi ptr [ %31, %.preheader.i ], [ %0, %.cont32.i ]
  %30 = getelementptr inbounds nuw i8, ptr %.0.i22, i64 8
  %31 = load ptr, ptr %30, align 8, !tbaa !12
  %.not.i23 = icmp eq ptr %31, null
  br i1 %.not.i23, label %32, label %.preheader.i, !llvm.loop !20

32:                                               ; preds = %.preheader.i
  br i1 %26, label %.cont29.thread.i, label %.else31.i

.else31.i:                                        ; preds = %32
  store ptr %.0.i22, ptr %1, align 8, !tbaa !19
  br label %.cont29.thread.i

.cont29.i:                                        ; preds = %.cont32.i
  br i1 %.not6.i, label %33, label %.cont29.thread.i

33:                                               ; preds = %.cont29.i
  %34 = call noalias dereferenceable_or_null(16) ptr @uprv_malloc_77(i64 noundef 16) #15
  %35 = icmp eq ptr %34, null
  br i1 %35, label %pkg_prependToList.exit.i, label %36

36:                                               ; preds = %33
  store ptr %25, ptr %34, align 8, !tbaa !4
  br label %pkg_prependToList.exit.sink.split.i

.cont29.thread.i:                                 ; preds = %.cont29.i, %.else31.i, %32
  %.03639.i = phi ptr [ null, %.cont29.i ], [ %.0.i22, %32 ], [ null, %.else31.i ]
  %37 = call noalias dereferenceable_or_null(16) ptr @uprv_malloc_77(i64 noundef 16) #15
  %38 = icmp eq ptr %37, null
  br i1 %38, label %pkg_prependToList.exit24.i, label %39

39:                                               ; preds = %.cont29.thread.i
  store ptr %25, ptr %37, align 8, !tbaa !4
  %40 = getelementptr inbounds nuw i8, ptr %37, i64 8
  store ptr null, ptr %40, align 8, !tbaa !12
  br label %pkg_prependToList.exit24.i

pkg_prependToList.exit24.i:                       ; preds = %39, %.cont29.thread.i
  br i1 %26, label %pkg_prependToList.exit.sink.split.i, label %pkg_prependToList.exit24.else.i

pkg_prependToList.exit24.else.i:                  ; preds = %pkg_prependToList.exit24.i
  %.else.val.i = load ptr, ptr %1, align 8, !tbaa !19
  br label %pkg_prependToList.exit.sink.split.i

pkg_prependToList.exit.sink.split.i:              ; preds = %pkg_prependToList.exit24.else.i, %pkg_prependToList.exit24.i, %36
  %.sink41.i = phi ptr [ %34, %36 ], [ %.03639.i, %pkg_prependToList.exit24.i ], [ %.else.val.i, %pkg_prependToList.exit24.else.i ]
  %.sink.i = phi ptr [ null, %36 ], [ %37, %pkg_prependToList.exit24.i ], [ %37, %pkg_prependToList.exit24.else.i ]
  %.03638.ph.i = phi ptr [ null, %36 ], [ %.03639.i, %pkg_prependToList.exit24.i ], [ %.03639.i, %pkg_prependToList.exit24.else.i ]
  %.019.ph.i = phi ptr [ %34, %36 ], [ %0, %pkg_prependToList.exit24.i ], [ %0, %pkg_prependToList.exit24.else.i ]
  %41 = getelementptr inbounds nuw i8, ptr %.sink41.i, i64 8
  store ptr %.sink.i, ptr %41, align 8, !tbaa !12
  br label %pkg_prependToList.exit.i

pkg_prependToList.exit.i:                         ; preds = %pkg_prependToList.exit.sink.split.i, %33
  %.03638.i = phi ptr [ null, %33 ], [ %.03638.ph.i, %pkg_prependToList.exit.sink.split.i ]
  %.019.i = phi ptr [ null, %33 ], [ %.019.ph.i, %pkg_prependToList.exit.sink.split.i ]
  br i1 %26, label %.cont25.i, label %.else27.i

.else27.i:                                        ; preds = %pkg_prependToList.exit.i
  %.else.val28.i = load ptr, ptr %1, align 8, !tbaa !19
  br label %.cont25.i

.cont25.i:                                        ; preds = %.else27.i, %pkg_prependToList.exit.i
  %42 = phi ptr [ %.03638.i, %pkg_prependToList.exit.i ], [ %.else.val28.i, %.else27.i ]
  %.not23.i = icmp eq ptr %42, null
  br i1 %.not23.i, label %46, label %43

43:                                               ; preds = %.cont25.i
  %44 = getelementptr inbounds nuw i8, ptr %42, i64 8
  %45 = load ptr, ptr %44, align 8, !tbaa !12
  br label %46

46:                                               ; preds = %43, %.cont25.i
  %storemerge.i = phi ptr [ %45, %43 ], [ %.019.i, %.cont25.i ]
  br i1 %26, label %pkg_listContains.exit, label %.else.i

.else.i:                                          ; preds = %46
  store ptr %storemerge.i, ptr %1, align 8, !tbaa !19
  br label %pkg_listContains.exit

pkg_listContains.exit:                            ; preds = %.lr.ph.i20, %.else.i, %46, %3, %11
  %.0 = phi ptr [ %0, %11 ], [ %0, %3 ], [ %.019.i, %46 ], [ %.019.i, %.else.i ], [ %0, %.lr.ph.i20 ]
  call void @llvm.lifetime.end.p0(i64 1024, ptr nonnull %4) #11
  ret ptr %.0
}